; Function Attrs: nounwind uwtable
define void @ssl3_cleanup_key_block(ptr noundef captures(none) %0) local_unnamed_addr #0 {
  %2 = getelementptr inbounds nuw i8, ptr %0, i64 872
  %3 = load ptr, ptr %2, align 8, !tbaa !72
  %4 = getelementptr inbounds nuw i8, ptr %0, i64 864
  %5 = load i64, ptr %4, align 8, !tbaa !73
  tail call void @CRYPTO_clear_free(ptr noundef %3, i64 noundef %5, ptr noundef nonnull @.str, i32 noundef 216) #8
  tail call void @llvm.memset.p0.i64(ptr noundef nonnull align 8 dereferenceable(16) %4, i8 0, i64 16, i1 false)
  ret void
}